target datalayout = "e-m:e-p270:32:32-p271:32:32-p272:64:64-i64:64-i128:128-f80:128-n8:16:32:64-S128"
target triple = "x86_64-unknown-linux-gnu"

%class.JSONStringValueSerializer = type <{ %"class.base::ValueSerializer", ptr, i8, [7 x i8] }>
%"class.base::ValueSerializer" = type { ptr }

; Function Attrs: mustprogress uwtable
define dso_local noundef zeroext i1 @_ZN25JSONStringValueSerializer17SerializeInternalERKN4base5ValueEb(ptr noundef nonnull align 8 dereferenceable(17) %this, ptr noundef nonnull align 8 dereferenceable(12) %root, i1 noundef zeroext %omit_binary_values) #3 align 2 {
entry:
  %retval = alloca i1, align 1
  %this.addr = alloca ptr, align 8
  %root.addr = alloca ptr, align 8
  %omit_binary_values.addr = alloca i8, align 1
  %options = alloca i32, align 4
  store ptr %this, ptr %this.addr, align 8
  store ptr %root, ptr %root.addr, align 8
  %frombool = zext i1 %omit_binary_values to i8
  store i8 %frombool, ptr %omit_binary_values.addr, align 1
  %this1 = load ptr, ptr %this.addr, align 8
  %json_string_ = getelementptr inbounds %class.JSONStringValueSerializer, ptr %this1, i32 0, i32 1
  %0 = load ptr, ptr %json_string_, align 8
  %tobool = icmp ne ptr %0, null
  br i1 %tobool, label %if.end, label %if.then

if.then:                                          ; preds = %entry
  store i1 false, ptr %retval, align 1
  br label %return

if.end:                                           ; preds = %entry
  store i32 0, ptr %options, align 4
  %1 = load i8, ptr %omit_binary_values.addr, align 1
  %tobool2 = trunc i8 %1 to i1
  br i1 %tobool2, label %if.then3, label %if.end4

if.then3:                                         ; preds = %if.end
  %2 = load i32, ptr %options, align 4
  %or = or i32 %2, 1
  store i32 %or, ptr %options, align 4
  br label %if.end4

if.end4:                                          ; preds = %if.then3, %if.end
  %pretty_print_ = getelementptr inbounds %class.JSONStringValueSerializer, ptr %this1, i32 0, i32 2
  %3 = load i8, ptr %pretty_print_, align 8
  %tobool5 = trunc i8 %3 to i1
  br i1 %tobool5, label %if.then6, label %if.end8

if.then6:                                         ; preds = %if.end4
  %4 = load i32, ptr %options, align 4
  %or7 = or i32 %4, 4
  store i32 %or7, ptr %options, align 4
  br label %if.end8

if.end8:                                          ; preds = %if.then6, %if.end4
  %5 = load ptr, ptr %root.addr, align 8
  %6 = load i32, ptr %options, align 4
  %json_string_9 = getelementptr inbounds %class.JSONStringValueSerializer, ptr %this1, i32 0, i32 1
  %7 = load ptr, ptr %json_string_9, align 8
  %call = call noundef zeroext i1 @_ZN4base10JSONWriter16WriteWithOptionsERKNS_5ValueEiPNSt7__cxx1112basic_stringIcSt11char_traitsIcESaIcEEE(ptr noundef nonnull align 8 dereferenceable(12) %5, i32 noundef %6, ptr noundef %7)
  store i1 %call, ptr %retval, align 1
  br label %return

return:                                           ; preds = %if.end8, %if.then
  %8 = load i1, ptr %retval, align 1
  ret i1 %8
}