; Function Attrs: mustprogress uwtable
define dso_local noundef zeroext i1 @_ZN25JSONStringValueSerializer17SerializeInternalERKN4base5ValueEb(ptr nocapture noundef nonnull readonly align 8 dereferenceable(17) %this, ptr noundef nonnull align 8 dereferenceable(12) %root, i1 noundef zeroext %omit_binary_values) local_unnamed_addr #4 align 2 {
entry:
  %json_string_ = getelementptr inbounds i8, ptr %this, i64 8
  %0 = load ptr, ptr %json_string_, align 8
  %tobool.not = icmp eq ptr %0, null
  br i1 %tobool.not, label %return, label %if.end

if.end:                                           ; preds = %entry
  %pretty_print_ = getelementptr inbounds i8, ptr %this, i64 16
  %1 = load i8, ptr %pretty_print_, align 8
  %2 = shl i8 %1, 2
  %3 = and i8 %2, 4
  %4 = zext i1 %omit_binary_values to i8
  %5 = or disjoint i8 %3, %4
  %options.1 = zext nneg i8 %5 to i32
  %call = tail call noundef zeroext i1 @_ZN4base10JSONWriter16WriteWithOptionsERKNS_5ValueEiPNSt7__cxx1112basic_stringIcSt11char_traitsIcESaIcEEE(ptr noundef nonnull align 8 dereferenceable(12) %root, i32 noundef %options.1, ptr noundef nonnull %0)
  br label %return

return:                                           ; preds = %entry, %if.end
  %retval.0 = phi i1 [ %call, %if.end ], [ false, %entry ]
  ret i1 %retval.0
}